target datalayout = "e-m:e-p270:32:32-p271:32:32-p272:64:64-i64:64-i128:128-f80:128-n8:16:32:64-S128"
target triple = "x86_64-pc-linux-gnu"

%struct.H5D_chk_idx_info_t = type { ptr, ptr, ptr, ptr }
%struct.H5O_storage_chunk_t = type { i32, i64, ptr, %union.anon }
%union.anon = type { %struct.H5O_storage_chunk_btree_t }
%struct.H5O_storage_chunk_btree_t = type { i64, ptr }
%struct.H5O_storage_chunk_bt2_t = type { i64, ptr }
%struct.H5D_bt2_it_ud_t = type { ptr, ptr }

@.str.2 = private unnamed_addr constant [103 x i8] c"generated/home/dtcxzyw/WorkSpace/Projects/compilers/llvm-opt-benchmark/bench/hdf5/hdf5/src/H5Dbtree2.c\00", align 1
@H5E_DATASET_g = external global i64, align 8
@H5E_CANTOPENOBJ_g = external global i64, align 8
@.str.28 = private unnamed_addr constant [21 x i8] c"can't open v2 B-tree\00", align 1
@.str.29 = private unnamed_addr constant [35 x i8] c"can't patch v2 B-tree file pointer\00", align 1
@__func__.H5D__bt2_idx_iterate = private unnamed_addr constant [21 x i8] c"H5D__bt2_idx_iterate\00", align 1
@H5E_BADITER_g = external global i64, align 8
@.str.33 = private unnamed_addr constant [39 x i8] c"unable to iterate over chunk v2 B-tree\00", align 1

; Function Attrs: nounwind uwtable
define internal i32 @H5D__bt2_idx_iterate(ptr noundef %0, ptr noundef %1, ptr noundef %2) #0 {
  %4 = alloca ptr, align 8
  %5 = alloca ptr, align 8
  %6 = alloca ptr, align 8
  %7 = alloca ptr, align 8
  %8 = alloca %struct.H5D_bt2_it_ud_t, align 8
  %9 = alloca i32, align 4
  %10 = alloca i8, align 1
  store ptr %0, ptr %4, align 8
  store ptr %1, ptr %5, align 8
  store ptr %2, ptr %6, align 8
  store i32 -1, ptr %9, align 4
  store i8 0, ptr %10, align 1
  %11 = load ptr, ptr %4, align 8
  %12 = getelementptr inbounds %struct.H5D_chk_idx_info_t, ptr %11, i32 0, i32 3
  %13 = load ptr, ptr %12, align 8
  %14 = getelementptr inbounds %struct.H5O_storage_chunk_t, ptr %13, i32 0, i32 3
  %15 = getelementptr inbounds %struct.H5O_storage_chunk_bt2_t, ptr %14, i32 0, i32 1
  %16 = load ptr, ptr %15, align 8
  %17 = icmp ne ptr null, %16
  br i1 %17, label %38, label %18

18:                                               ; preds = %3
  %19 = load ptr, ptr %4, align 8
  %20 = call i32 @H5D__bt2_idx_open(ptr noundef %19)
  %21 = icmp slt i32 %20, 0
  br i1 %21, label %22, label %37

22:                                               ; preds = %18
  br label %23

23:                                               ; preds = %22
  br label %24

24:                                               ; preds = %23
  br label %25

25:                                               ; preds = %24
  %26 = load i64, ptr @H5E_DATASET_g, align 8
  %27 = load i64, ptr @H5E_CANTOPENOBJ_g, align 8
  %28 = call i32 (ptr, ptr, i32, i64, i64, ptr, ...) @H5E_printf_stack(ptr noundef @.str.2, ptr noundef @__func__.H5D__bt2_idx_iterate, i32 noundef 1178, i64 noundef %26, i64 noundef %27, ptr noundef @.str.28)
  br label %29

29:                                               ; preds = %25
  store i8 1, ptr %10, align 1
  %30 = load i8, ptr %10, align 1
  %31 = trunc i8 %30 to i1
  %32 = zext i1 %31 to i8
  store i8 %32, ptr %10, align 1
  br label %33

33:                                               ; preds = %29
  br label %34

34:                                               ; preds = %33
  store i32 -1, ptr %9, align 4
  br label %87

35:                                               ; No predecessors!
  br label %36

36:                                               ; preds = %35
  br label %37

37:                                               ; preds = %36, %18
  br label %66

38:                                               ; preds = %3
  %39 = load ptr, ptr %4, align 8
  %40 = getelementptr inbounds %struct.H5D_chk_idx_info_t, ptr %39, i32 0, i32 3
  %41 = load ptr, ptr %40, align 8
  %42 = getelementptr inbounds %struct.H5O_storage_chunk_t, ptr %41, i32 0, i32 3
  %43 = getelementptr inbounds %struct.H5O_storage_chunk_bt2_t, ptr %42, i32 0, i32 1
  %44 = load ptr, ptr %43, align 8
  %45 = load ptr, ptr %4, align 8
  %46 = getelementptr inbounds %struct.H5D_chk_idx_info_t, ptr %45, i32 0, i32 0
  %47 = load ptr, ptr %46, align 8
  %48 = call i32 @H5B2_patch_file(ptr noundef %44, ptr noundef %47)
  %49 = icmp slt i32 %48, 0
  br i1 %49, label %50, label %65

50:                                               ; preds = %38
  br label %51

51:                                               ; preds = %50
  br label %52

52:                                               ; preds = %51
  br label %53

53:                                               ; preds = %52
  %54 = load i64, ptr @H5E_DATASET_g, align 8
  %55 = load i64, ptr @H5E_CANTOPENOBJ_g, align 8
  %56 = call i32 (ptr, ptr, i32, i64, i64, ptr, ...) @H5E_printf_stack(ptr noundef @.str.2, ptr noundef @__func__.H5D__bt2_idx_iterate, i32 noundef 1182, i64 noundef %54, i64 noundef %55, ptr noundef @.str.29)
  br label %57

57:                                               ; preds = %53
  store i8 1, ptr %10, align 1
  %58 = load i8, ptr %10, align 1
  %59 = trunc i8 %58 to i1
  %60 = zext i1 %59 to i8
  store i8 %60, ptr %10, align 1
  br label %61

61:                                               ; preds = %57
  br label %62

62:                                               ; preds = %61
  store i32 -1, ptr %9, align 4
  br label %87

63:                                               ; No predecessors!
  br label %64

64:                                               ; preds = %63
  br label %65

65:                                               ; preds = %64, %38
  br label %66

66:                                               ; preds = %65, %37
  %67 = load ptr, ptr %4, align 8
  %68 = getelementptr inbounds %struct.H5D_chk_idx_info_t, ptr %67, i32 0, i32 3
  %69 = load ptr, ptr %68, align 8
  %70 = getelementptr inbounds %struct.H5O_storage_chunk_t, ptr %69, i32 0, i32 3
  %71 = getelementptr inbounds %struct.H5O_storage_chunk_bt2_t, ptr %70, i32 0, i32 1
  %72 = load ptr, ptr %71, align 8
  store ptr %72, ptr %7, align 8
  %73 = load ptr, ptr %5, align 8
  %74 = getelementptr inbounds %struct.H5D_bt2_it_ud_t, ptr %8, i32 0, i32 0
  store ptr %73, ptr %74, align 8
  %75 = load ptr, ptr %6, align 8
  %76 = getelementptr inbounds %struct.H5D_bt2_it_ud_t, ptr %8, i32 0, i32 1
  store ptr %75, ptr %76, align 8
  %77 = load ptr, ptr %7, align 8
  %78 = call i32 @H5B2_iterate(ptr noundef %77, ptr noundef @H5D__bt2_idx_iterate_cb, ptr noundef %8)
  store i32 %78, ptr %9, align 4
  %79 = icmp slt i32 %78, 0
  br i1 %79, label %80, label %86

80:                                               ; preds = %66
  br label %81

81:                                               ; preds = %80
  %82 = load i64, ptr @H5E_DATASET_g, align 8
  %83 = load i64, ptr @H5E_BADITER_g, align 8
  %84 = call i32 (ptr, ptr, i32, i64, i64, ptr, ...) @H5E_printf_stack(ptr noundef @.str.2, ptr noundef @__func__.H5D__bt2_idx_iterate, i32 noundef 1193, i64 noundef %82, i64 noundef %83, ptr noundef @.str.33)
  br label %85

85:                                               ; preds = %81
  br label %86

86:                                               ; preds = %85, %66
  br label %87

87:                                               ; preds = %86, %62, %34
  %88 = load i32, ptr %9, align 4
  ret i32 %88
}