; Function Attrs: nounwind uwtable
define internal i32 @H5D__bt2_idx_iterate(ptr nocapture noundef readonly %0, ptr noundef %1, ptr noundef %2) #1 {
  %4 = alloca %struct.H5D_bt2_it_ud_t, align 8
  %5 = getelementptr inbounds i8, ptr %0, i64 24
  %6 = load ptr, ptr %5, align 8
  %7 = getelementptr inbounds i8, ptr %6, i64 32
  %8 = load ptr, ptr %7, align 8
  %.not = icmp eq ptr %8, null
  br i1 %.not, label %9, label %16

9:                                                ; preds = %3
  %10 = tail call i32 @H5D__bt2_idx_open(ptr noundef nonnull %0)
  %11 = icmp slt i32 %10, 0
  br i1 %11, label %12, label %24

12:                                               ; preds = %9
  %13 = load i64, ptr @H5E_DATASET_g, align 8
  %14 = load i64, ptr @H5E_CANTOPENOBJ_g, align 8
  %15 = tail call i32 (ptr, ptr, i32, i64, i64, ptr, ...) @H5E_printf_stack(ptr noundef nonnull @.str.2, ptr noundef nonnull @__func__.H5D__bt2_idx_iterate, i32 noundef 1178, i64 noundef %13, i64 noundef %14, ptr noundef nonnull @.str.28) #14
  br label %35

16:                                               ; preds = %3
  %17 = load ptr, ptr %0, align 8
  %18 = tail call i32 @H5B2_patch_file(ptr noundef nonnull %8, ptr noundef %17) #14
  %19 = icmp slt i32 %18, 0
  br i1 %19, label %20, label %24

20:                                               ; preds = %16
  %21 = load i64, ptr @H5E_DATASET_g, align 8
  %22 = load i64, ptr @H5E_CANTOPENOBJ_g, align 8
  %23 = tail call i32 (ptr, ptr, i32, i64, i64, ptr, ...) @H5E_printf_stack(ptr noundef nonnull @.str.2, ptr noundef nonnull @__func__.H5D__bt2_idx_iterate, i32 noundef 1182, i64 noundef %21, i64 noundef %22, ptr noundef nonnull @.str.29) #14
  br label %35

24:                                               ; preds = %16, %9
  %25 = load ptr, ptr %5, align 8
  %26 = getelementptr inbounds i8, ptr %25, i64 32
  %27 = load ptr, ptr %26, align 8
  store ptr %1, ptr %4, align 8
  %28 = getelementptr inbounds i8, ptr %4, i64 8
  store ptr %2, ptr %28, align 8
  %29 = call i32 @H5B2_iterate(ptr noundef %27, ptr noundef nonnull @H5D__bt2_idx_iterate_cb, ptr noundef nonnull %4) #14
  %30 = icmp slt i32 %29, 0
  br i1 %30, label %31, label %35

31:                                               ; preds = %24
  %32 = load i64, ptr @H5E_DATASET_g, align 8
  %33 = load i64, ptr @H5E_BADITER_g, align 8
  %34 = call i32 (ptr, ptr, i32, i64, i64, ptr, ...) @H5E_printf_stack(ptr noundef nonnull @.str.2, ptr noundef nonnull @__func__.H5D__bt2_idx_iterate, i32 noundef 1193, i64 noundef %32, i64 noundef %33, ptr noundef nonnull @.str.33) #14
  br label %35

35:                                               ; preds = %24, %31, %20, %12
  %.0 = phi i32 [ -1, %20 ], [ %29, %31 ], [ %29, %24 ], [ -1, %12 ]
  ret i32 %.0
}